target datalayout = "e-m:e-p270:32:32-p271:32:32-p272:64:64-i64:64-f80:128-n8:16:32:64-S128"
target triple = "x86_64-pc-linux-gnu"

@.str = private unnamed_addr constant [6 x i8] c"%d %d\00", align 1
@.str.1 = private unnamed_addr constant [3 x i8] c"%d\00", align 1
@.str.2 = private unnamed_addr constant [2 x i8] c"\0A\00", align 1
@.str.3 = private unnamed_addr constant [4 x i8] c"%d \00", align 1

; Function Attrs: noinline nounwind uwtable
define dso_local i32 @main() #0 {
  %1 = alloca i32, align 4
  %2 = alloca [100 x i32], align 16
  %3 = alloca [100 x i32], align 16
  %4 = alloca i32, align 4
  %5 = alloca i32, align 4
  %6 = alloca i32, align 4
  %7 = alloca i32, align 4
  %8 = alloca i32, align 4
  %9 = alloca i32, align 4
  %10 = alloca [300 x i32], align 16
  %11 = alloca i32, align 4
  %12 = alloca i32, align 4
  store i32 0, i32* %1, align 4
  %13 = call i32 (i8*, ...) @__isoc99_scanf(i8* getelementptr inbounds ([6 x i8], [6 x i8]* @.str, i64 0, i64 0), i32* %4, i32* %5)
  store i32 0, i32* %6, align 4
  br label %14

14:                                               ; preds = %23, %0
  %15 = load i32, i32* %6, align 4
  %16 = load i32, i32* %4, align 4
  %17 = icmp slt i32 %15, %16
  br i1 %17, label %18, label %26

18:                                               ; preds = %14
  %19 = load i32, i32* %6, align 4
  %20 = sext i32 %19 to i64
  %21 = getelementptr inbounds [100 x i32], [100 x i32]* %2, i64 0, i64 %20
  %22 = call i32 (i8*, ...) @__isoc99_scanf(i8* getelementptr inbounds ([3 x i8], [3 x i8]* @.str.1, i64 0, i64 0), i32* %21)
  br label %23

23:                                               ; preds = %18
  %24 = load i32, i32* %6, align 4
  %25 = add nsw i32 %24, 1
  store i32 %25, i32* %6, align 4
  br label %14

26:                                               ; preds = %14
  %27 = call i32 (i8*, ...) @printf(i8* getelementptr inbounds ([2 x i8], [2 x i8]* @.str.2, i64 0, i64 0))
  store i32 0, i32* %6, align 4
  br label %28

28:                                               ; preds = %37, %26
  %29 = load i32, i32* %6, align 4
  %30 = load i32, i32* %5, align 4
  %31 = icmp slt i32 %29, %30
  br i1 %31, label %32, label %40

32:                                               ; preds = %28
  %33 = load i32, i32* %6, align 4
  %34 = sext i32 %33 to i64
  %35 = getelementptr inbounds [100 x i32], [100 x i32]* %3, i64 0, i64 %34
  %36 = call i32 (i8*, ...) @__isoc99_scanf(i8* getelementptr inbounds ([3 x i8], [3 x i8]* @.str.1, i64 0, i64 0), i32* %35)
  br label %37

37:                                               ; preds = %32
  %38 = load i32, i32* %6, align 4
  %39 = add nsw i32 %38, 1
  store i32 %39, i32* %6, align 4
  br label %28

40:                                               ; preds = %28
  %41 = call i32 (i8*, ...) @printf(i8* getelementptr inbounds ([2 x i8], [2 x i8]* @.str.2, i64 0, i64 0))
  store i32 1, i32* %7, align 4
  br label %42

42:                                               ; preds = %88, %40
  %43 = load i32, i32* %7, align 4
  %44 = load i32, i32* %4, align 4
  %45 = load i32, i32* %4, align 4
  %46 = mul nsw i32 %44, %45
  %47 = icmp sle i32 %43, %46
  br i1 %47, label %48, label %91

48:                                               ; preds = %42
  store i32 0, i32* %8, align 4
  br label %49

49:                                               ; preds = %84, %48
  %50 = load i32, i32* %8, align 4
  %51 = load i32, i32* %4, align 4
  %52 = sub nsw i32 %51, 1
  %53 = icmp slt i32 %50, %52
  br i1 %53, label %54, label %87

54:                                               ; preds = %49
  %55 = load i32, i32* %8, align 4
  %56 = sext i32 %55 to i64
  %57 = getelementptr inbounds [100 x i32], [100 x i32]* %2, i64 0, i64 %56
  %58 = load i32, i32* %57, align 4
  %59 = load i32, i32* %8, align 4
  %60 = add nsw i32 %59, 1
  %61 = sext i32 %60 to i64
  %62 = getelementptr inbounds [100 x i32], [100 x i32]* %2, i64 0, i64 %61
  %63 = load i32, i32* %62, align 4
  %64 = icmp sge i32 %58, %63
  br i1 %64, label %65, label %83

65:                                               ; preds = %54
  %66 = load i32, i32* %8, align 4
  %67 = sext i32 %66 to i64
  %68 = getelementptr inbounds [100 x i32], [100 x i32]* %2, i64 0, i64 %67
  %69 = load i32, i32* %68, align 4
  store i32 %69, i32* %9, align 4
  %70 = load i32, i32* %8, align 4
  %71 = add nsw i32 %70, 1
  %72 = sext i32 %71 to i64
  %73 = getelementptr inbounds [100 x i32], [100 x i32]* %2, i64 0, i64 %72
  %74 = load i32, i32* %73, align 4
  %75 = load i32, i32* %8, align 4
  %76 = sext i32 %75 to i64
  %77 = getelementptr inbounds [100 x i32], [100 x i32]* %2, i64 0, i64 %76
  store i32 %74, i32* %77, align 4
  %78 = load i32, i32* %9, align 4
  %79 = load i32, i32* %8, align 4
  %80 = add nsw i32 %79, 1
  %81 = sext i32 %80 to i64
  %82 = getelementptr inbounds [100 x i32], [100 x i32]* %2, i64 0, i64 %81
  store i32 %78, i32* %82, align 4
  br label %83

83:                                               ; preds = %65, %54
  br label %84

84:                                               ; preds = %83
  %85 = load i32, i32* %8, align 4
  %86 = add nsw i32 %85, 1
  store i32 %86, i32* %8, align 4
  br label %49

87:                                               ; preds = %49
  br label %88

88:                                               ; preds = %87
  %89 = load i32, i32* %7, align 4
  %90 = add nsw i32 %89, 1
  store i32 %90, i32* %7, align 4
  br label %42

91:                                               ; preds = %42
  store i32 1, i32* %7, align 4
  br label %92

92:                                               ; preds = %138, %91
  %93 = load i32, i32* %7, align 4
  %94 = load i32, i32* %5, align 4
  %95 = load i32, i32* %5, align 4
  %96 = mul nsw i32 %94, %95
  %97 = icmp sle i32 %93, %96
  br i1 %97, label %98, label %141

98:                                               ; preds = %92
  store i32 0, i32* %8, align 4
  br label %99

99:                                               ; preds = %134, %98
  %100 = load i32, i32* %8, align 4
  %101 = load i32, i32* %5, align 4
  %102 = sub nsw i32 %101, 1
  %103 = icmp slt i32 %100, %102
  br i1 %103, label %104, label %137

104:                                              ; preds = %99
  %105 = load i32, i32* %8, align 4
  %106 = sext i32 %105 to i64
  %107 = getelementptr inbounds [100 x i32], [100 x i32]* %3, i64 0, i64 %106
  %108 = load i32, i32* %107, align 4
  %109 = load i32, i32* %8, align 4
  %110 = add nsw i32 %109, 1
  %111 = sext i32 %110 to i64
  %112 = getelementptr inbounds [100 x i32], [100 x i32]* %3, i64 0, i64 %111
  %113 = load i32, i32* %112, align 4
  %114 = icmp sge i32 %108, %113
  br i1 %114, label %115, label %133

115:                                              ; preds = %104
  %116 = load i32, i32* %8, align 4
  %117 = sext i32 %116 to i64
  %118 = getelementptr inbounds [100 x i32], [100 x i32]* %3, i64 0, i64 %117
  %119 = load i32, i32* %118, align 4
  store i32 %119, i32* %9, align 4
  %120 = load i32, i32* %8, align 4
  %121 = add nsw i32 %120, 1
  %122 = sext i32 %121 to i64
  %123 = getelementptr inbounds [100 x i32], [100 x i32]* %3, i64 0, i64 %122
  %124 = load i32, i32* %123, align 4
  %125 = load i32, i32* %8, align 4
  %126 = sext i32 %125 to i64
  %127 = getelementptr inbounds [100 x i32], [100 x i32]* %3, i64 0, i64 %126
  store i32 %124, i32* %127, align 4
  %128 = load i32, i32* %9, align 4
  %129 = load i32, i32* %8, align 4
  %130 = add nsw i32 %129, 1
  %131 = sext i32 %130 to i64
  %132 = getelementptr inbounds [100 x i32], [100 x i32]* %3, i64 0, i64 %131
  store i32 %128, i32* %132, align 4
  br label %133

133:                                              ; preds = %115, %104
  br label %134

134:                                              ; preds = %133
  %135 = load i32, i32* %8, align 4
  %136 = add nsw i32 %135, 1
  store i32 %136, i32* %8, align 4
  br label %99

137:                                              ; preds = %99
  br label %138

138:                                              ; preds = %137
  %139 = load i32, i32* %7, align 4
  %140 = add nsw i32 %139, 1
  store i32 %140, i32* %7, align 4
  br label %92

141:                                              ; preds = %92
  store i32 0, i32* %11, align 4
  br label %142

142:                                              ; preds = %171, %141
  %143 = load i32, i32* %11, align 4
  %144 = load i32, i32* %4, align 4
  %145 = load i32, i32* %5, align 4
  %146 = add nsw i32 %144, %145
  %147 = icmp slt i32 %143, %146
  br i1 %147, label %148, label %174

148:                                              ; preds = %142
  %149 = load i32, i32* %11, align 4
  %150 = load i32, i32* %4, align 4
  %151 = icmp slt i32 %149, %150
  br i1 %151, label %152, label %160

152:                                              ; preds = %148
  %153 = load i32, i32* %11, align 4
  %154 = sext i32 %153 to i64
  %155 = getelementptr inbounds [100 x i32], [100 x i32]* %2, i64 0, i64 %154
  %156 = load i32, i32* %155, align 4
  %157 = load i32, i32* %11, align 4
  %158 = sext i32 %157 to i64
  %159 = getelementptr inbounds [300 x i32], [300 x i32]* %10, i64 0, i64 %158
  store i32 %156, i32* %159, align 4
  br label %170

160:                                              ; preds = %148
  %161 = load i32, i32* %11, align 4
  %162 = load i32, i32* %4, align 4
  %163 = sub nsw i32 %161, %162
  %164 = sext i32 %163 to i64
  %165 = getelementptr inbounds [100 x i32], [100 x i32]* %3, i64 0, i64 %164
  %166 = load i32, i32* %165, align 4
  %167 = load i32, i32* %11, align 4
  %168 = sext i32 %167 to i64
  %169 = getelementptr inbounds [300 x i32], [300 x i32]* %10, i64 0, i64 %168
  store i32 %166, i32* %169, align 4
  br label %170

170:                                              ; preds = %160, %152
  br label %171

171:                                              ; preds = %170
  %172 = load i32, i32* %11, align 4
  %173 = add nsw i32 %172, 1
  store i32 %173, i32* %11, align 4
  br label %142

174:                                              ; preds = %142
  store i32 0, i32* %12, align 4
  br label %175

175:                                              ; preds = %201, %174
  %176 = load i32, i32* %12, align 4
  %177 = load i32, i32* %4, align 4
  %178 = load i32, i32* %5, align 4
  %179 = add nsw i32 %177, %178
  %180 = icmp slt i32 %176, %179
  br i1 %180, label %181, label %204

181:                                              ; preds = %175
  %182 = load i32, i32* %12, align 4
  %183 = load i32, i32* %4, align 4
  %184 = load i32, i32* %5, align 4
  %185 = add nsw i32 %183, %184
  %186 = sub nsw i32 %185, 1
  %187 = icmp ne i32 %182, %186
  br i1 %187, label %188, label %194

188:                                              ; preds = %181
  %189 = load i32, i32* %12, align 4
  %190 = sext i32 %189 to i64
  %191 = getelementptr inbounds [300 x i32], [300 x i32]* %10, i64 0, i64 %190
  %192 = load i32, i32* %191, align 4
  %193 = call i32 (i8*, ...) @printf(i8* getelementptr inbounds ([4 x i8], [4 x i8]* @.str.3, i64 0, i64 0), i32 %192)
  br label %200

194:                                              ; preds = %181
  %195 = load i32, i32* %12, align 4
  %196 = sext i32 %195 to i64
  %197 = getelementptr inbounds [300 x i32], [300 x i32]* %10, i64 0, i64 %196
  %198 = load i32, i32* %197, align 4
  %199 = call i32 (i8*, ...) @printf(i8* getelementptr inbounds ([3 x i8], [3 x i8]* @.str.1, i64 0, i64 0), i32 %198)
  br label %200

200:                                              ; preds = %194, %188
  br label %201

201:                                              ; preds = %200
  %202 = load i32, i32* %12, align 4
  %203 = add nsw i32 %202, 1
  store i32 %203, i32* %12, align 4
  br label %175

204:                                              ; preds = %175
  ret i32 0
}